(dp1
S'output'
p2
S''
sS'layer'
p3
S'/home/cem/web2py/applications/myapp/controllers/default.py'
p4
sS'code'
p5
S'# -*- coding: utf-8 -*- \n\n#########################################################################\n## This is a samples controller\n## - index is the default action of any application\n## - user is required for authentication and authorization\n## - download is for downloading files uploaded in the db (does streaming)\n## - call exposes all registered services (none by default)\n#########################################################################  \n\ndef index():\n    books = db(db.books.name.like(u\'%bilgi%\')).select(orderby=db.books.name)\n    return dict(books=books)\n\ndef query():\n    query_string = unicode(request.vars.query_string)\n    column_name = request.vars.column_name\n    like_string = u\'%\' + query_string + u\'%\'\n    expressions = {\n        "name"      : db.books.name.like(like_string),\n        "author"    : db.books.author.like(like_string),\n        "publisher" : db.books.publisher.like(like_string),\n    }\n    if (column_name == "isbn"):\n        expressions["isbn"] = db.books.isbn == int(query_string)\n\n    books = db(expressions[request.vars.column_name]).select(orderby=db.books.price)\n    return dict(books=books)\n\nresponse._vars=response._caller(query)\n'
p6
sS'traceback'
p7
S'Traceback (most recent call last):\n  File "/home/cem/web2py/gluon/restricted.py", line 178, in restricted\n    exec ccode in environment\n  File "/home/cem/web2py/applications/myapp/controllers/default.py", line 30, in <module>\n  File "/home/cem/web2py/gluon/globals.py", line 96, in <lambda>\n    self._caller = lambda f: f()\n  File "/home/cem/web2py/applications/myapp/controllers/default.py", line 25, in query\n    expressions["isbn"] = db.books.isbn == int(query_string)\nValueError: invalid literal for int() with base 10: \'\'\n'
p8
s.