(dp1
S'picture'
p2
S'CHAR(512)'
p3
sS'name'
p4
S'CHAR(512)'
p5
sS'vaccinated'
p6
S'CHAR(1)'
p7
sS'type'
p8
S'CHAR(512)'
p9
sS'id'
p10
S'INTEGER PRIMARY KEY AUTOINCREMENT'
p11
sS'owner_id'
p12
S'REFERENCES users(id) ON DELETE CASCADE'
p13
s.