(dp1
S'yenibiris'
p2
ccopy_reg
_reconstructor
p3
(ctwisted.plugin
CachedDropin
p4
c__builtin__
object
p5
NtRp6
(dp7
S'moduleName'
p8
S'jobadcrawler.spiders.yenibiris'
p9
sS'description'
p10
NsS'plugins'
p11
(lp12
g3
(ctwisted.plugin
CachedPlugin
p13
g5
NtRp14
(dp15
S'provided'
p16
(lp17
cscrapy.spider.models
ISpider
p18
asS'dropin'
p19
g6
sS'name'
p20
S'myspider'
p21
sg10
NsbasbsS'kitapyurdu'
p22
g3
(g4
g5
NtRp23
(dp24
S'moduleName'
p25
S'jobadcrawler.spiders.kitapyurdu'
p26
sS'description'
p27
NsS'plugins'
p28
(lp29
g3
(g13
g5
NtRp30
(dp31
S'provided'
p32
(lp33
g18
asS'dropin'
p34
g23
sS'name'
p35
S'SPIDER'
p36
sg27
NsbasbsS'kariyer'
p37
g3
(g4
g5
NtRp38
(dp39
S'moduleName'
p40
S'jobadcrawler.spiders.kariyer'
p41
sS'description'
p42
NsS'plugins'
p43
(lp44
g3
(g13
g5
NtRp45
(dp46
S'provided'
p47
(lp48
g18
asS'dropin'
p49
g38
sS'name'
p50
S'myspider'
p51
sg42
NsbasbsS'imge'
p52
g3
(g4
g5
NtRp53
(dp54
S'moduleName'
p55
S'jobadcrawler.spiders.imge'
p56
sS'description'
p57
NsS'plugins'
p58
(lp59
g3
(g13
g5
NtRp60
(dp61
S'provided'
p62
(lp63
g18
asS'dropin'
p64
g53
sS'name'
p65
S'SPIDER'
p66
sg57
NsbasbsS'ideefixe'
p67
g3
(g4
g5
NtRp68
(dp69
S'moduleName'
p70
S'jobadcrawler.spiders.ideefixe'
p71
sS'description'
p72
NsS'plugins'
p73
(lp74
g3
(g13
g5
NtRp75
(dp76
S'provided'
p77
(lp78
g18
asS'dropin'
p79
g68
sS'name'
p80
S'SPIDER'
p81
sg72
Nsbasbs.